Certificate:
    Data:
        Version: 3 (0x2)
        Serial Number: 6 (0x6)
    Signature Algorithm: sha1WithRSAEncryption
        Issuer: CN=Elytron CA, ST=Elytron, C=UK/emailAddress=elytron@wildfly.org, O=Root Certificate Authority
        Validity
            Not Before: Oct 18 11:51:38 2018 GMT
            Not After : Oct 15 11:51:38 2028 GMT
        Subject: CN=Binary, ST=Elytron, C=UK, O=Elytron, OU=Elytron
        Subject Public Key Info:
            Public Key Algorithm: rsaEncryption
                Public-Key: (2048 bit)
                Modulus:
                    00:89:61:12:77:c3:15:fb:51:5b:b6:98:d4:a6:01:
                    77:71:34:48:da:20:9c:74:9b:c7:db:55:ea:f4:3d:
                    79:75:43:f5:80:f7:72:75:1b:95:d7:60:53:f2:95:
                    15:c0:0b:35:9a:de:7c:32:ba:61:43:d4:2e:3b:7a:
                    39:2c:ad:a6:5b:79:b1:01:3a:56:02:25:2e:88:c8:
                    42:d8:71:6c:3a:54:54:76:72:29:1a:7a:6c:d0:39:
                    8f:04:e9:24:b0:67:26:f3:ec:70:cb:62:95:60:ff:
                    32:4b:3b:0c:1f:2e:5c:e2:7d:66:97:97:94:5a:29:
                    17:70:ac:6d:18:f4:44:06:76:d7:9d:6b:70:54:74:
                    97:e7:89:03:96:fd:c1:d5:bf:2a:f7:d3:a6:88:cb:
                    d7:c7:46:b0:8d:17:55:a5:ed:1d:0b:77:38:57:96:
                    e8:3c:56:2c:a9:99:b9:7d:1f:c5:e5:2e:48:e2:76:
                    ca:61:b0:d4:ad:71:63:24:54:6d:c3:3f:56:1b:d4:
                    7e:1f:28:80:a0:39:53:1b:8b:50:b2:aa:16:91:ac:
                    10:c5:5e:39:98:2a:90:d2:6c:2e:fa:9a:c8:06:8e:
                    22:1a:6d:67:ba:7d:18:d1:7a:83:7b:a8:35:2a:ff:
                    e1:fe:47:bc:44:6a:04:06:4e:64:bb:e7:49:43:42:
                    db:43
                Exponent: 65537 (0x10001)
        X509v3 extensions:
            X509v3 Basic Constraints: 
                CA:FALSE
    Signature Algorithm: sha1WithRSAEncryption
         68:64:f5:98:e3:b2:0c:92:59:64:e1:ff:6e:93:1a:16:4c:bf:
         32:b7:71:c1:85:bf:08:01:1c:11:f2:e9:66:cc:77:c5:6f:5e:
         38:91:ea:51:53:db:9e:c3:8b:d0:84:05:19:7b:09:02:ff:a2:
         41:15:38:07:ca:b1:44:cb:66:01:8f:7a:2f:ac:92:6c:a9:94:
         e5:6c:bf:c5:be:da:fb:74:52:d8:19:46:bb:fd:7c:b7:f4:fb:
         d1:47:c0:13:a9:f4:33:f2:3e:39:d9:8c:0c:99:7c:fd:65:3c:
         35:bf:9f:7c:aa:b9:10:03:4e:93:ad:7b:21:f0:c7:5a:e3:bc:
         2d:f0:77:29:55:0a:5b:c9:57:44:10:3e:7e:d3:a6:28:23:89:
         86:b7:70:12:8f:86:99:d0:60:a3:2f:2d:80:3c:e1:8a:f7:a9:
         1e:e3:3c:c3:4f:49:8b:63:41:90:d2:3d:d9:3c:ac:66:3a:8f:
         23:77:c5:bc:d2:3f:b6:5b:d6:2b:de:fe:02:16:c1:48:c8:e7:
         d5:b4:1d:63:df:d1:70:7d:73:7d:6c:26:38:2a:84:40:74:3a:
         11:db:97:e1:4f:29:0b:d8:2b:fc:99:6e:d2:bf:79:e7:2b:3c:
         ba:bd:43:a9:fa:5d:cb:d7:94:c7:8f:58:e4:36:1e:27:44:da:
         b3:0f:26:37
-----BEGIN CERTIFICATE-----
MIIDWTCCAkGgAwIBAgIBBjANBgkqhkiG9w0BAQUFADB9MRMwEQYDVQQDDApFbHl0
cm9uIENBMRAwDgYDVQQIDAdFbHl0cm9uMQswCQYDVQQGEwJVSzEiMCAGCSqGSIb3
DQEJARYTZWx5dHJvbkB3aWxkZmx5Lm9yZzEjMCEGA1UECgwaUm9vdCBDZXJ0aWZp
Y2F0ZSBBdXRob3JpdHkwHhcNMTgxMDE4MTE1MTM4WhcNMjgxMDE1MTE1MTM4WjBU
MQ8wDQYDVQQDEwZCaW5hcnkxEDAOBgNVBAgTB0VseXRyb24xCzAJBgNVBAYTAlVL
MRAwDgYDVQQKEwdFbHl0cm9uMRAwDgYDVQQLEwdFbHl0cm9uMIIBIjANBgkqhkiG
9w0BAQEFAAOCAQ8AMIIBCgKCAQEAiWESd8MV+1FbtpjUpgF3cTRI2iCcdJvH21Xq
9D15dUP1gPdydRuV12BT8pUVwAs1mt58MrphQ9QuO3o5LK2mW3mxATpWAiUuiMhC
2HFsOlRUdnIpGnps0DmPBOkksGcm8+xwy2KVYP8ySzsMHy5c4n1ml5eUWikXcKxt
GPREBnbXnWtwVHSX54kDlv3B1b8q99OmiMvXx0awjRdVpe0dC3c4V5boPFYsqZm5
fR/F5S5I4nbKYbDUrXFjJFRtwz9WG9R+HyiAoDlTG4tQsqoWkawQxV45mCqQ0mwu
+prIBo4iGm1nun0Y0XqDe6g1Kv/h/ke8RGoEBk5ku+dJQ0LbQwIDAQABow0wCzAJ
BgNVHRMEAjAAMA0GCSqGSIb3DQEBBQUAA4IBAQBoZPWY47IMkllk4f9ukxoWTL8y
t3HBhb8IARwR8ulmzHfFb144kepRU9uew4vQhAUZewkC/6JBFTgHyrFEy2YBj3ov
rJJsqZTlbL/Fvtr7dFLYGUa7/Xy39PvRR8ATqfQz8j452YwMmXz9ZTw1v598qrkQ
A06TrXsh8Mda47wt8HcpVQpbyVdEED5+06YoI4mGt3ASj4aZ0GCjLy2APOGK96ke
4zzDT0mLY0GQ0j3ZPKxmOo8jd8W80j+2W9Yr3v4CFsFIyOfVtB1j39FwfXN9bCY4
KoRAdDoR25fhTykL2Cv8mW7Sv3nnKzy6vUOp+l3L15THj1jkNh4nRNqzDyY3
-----END CERTIFICATE-----
